(lp0
(lp1
I2
aI0
aI0
aI0
aI0
aF0.85
aF0.13333333333333333
aI1
aa(lp2
I2
aI0
aI0
aI0
aI0
aF0.85
aF0.13333333333333333
aI1
aa(lp3
I2
aI0
aI0
aI0
aI0
aF0.84375
aF0.13333333333333333
aI1
aa(lp4
I2
aI0
aI0
aI0
aI0
aF0.853125
aF0.13333333333333333
aI1
aa(lp5
I2
aI0
aI0
aI0
aI0
aF0.85
aF0.13333333333333333
aI1
aa(lp6
I2
aI0
aI0
aI0
aI0
aF0.84375
aF0.13333333333333333
aI1
aa(lp7
I2
aI0
aI0
aI0
aI0
aF0.846875
aF0.13333333333333333
aI1
aa(lp8
I2
aI0
aI0
aI0
aI0
aF0.84375
aF0.13333333333333333
aI1
aa(lp9
I2
aI0
aI0
aI0
aI0
aF0.85
aF0.1361111111111111
aI1
aa(lp10
I2
aI0
aI0
aI0
aI0
aF0.846875
aF0.13333333333333333
aI1
aa(lp11
I2
aI0
aI0
aI0
aI0
aF0.84375
aF0.13333333333333333
aI1
aa(lp12
I2
aI0
aI0
aI0
aI0
aF0.84375
aF0.13333333333333333
aI1
aa(lp13
I2
aI0
aI0
aI0
aI0
aF0.84375
aF0.13333333333333333
aI1
aa(lp14
I2
aI0
aI0
aI0
aI0
aF0.85
aF0.13333333333333333
aI1
aa(lp15
I3
aI0
aI0
aI0
aI0
aF0.846875
aF0.13333333333333333
aI1
aa(lp16
I3
aI0
aI0
aI0
aI0
aF0.84375
aF0.13333333333333333
aI1
aa(lp17
I3
aI0
aI0
aI0
aI0
aF0.846875
aF0.13333333333333333
aI1
aa(lp18
I3
aI2
aI0
aI0
aI0
aF0.846875
aF0.13333333333333333
aI1
aa(lp19
I2
aI0
aI0
aI0
aI0
aF0.85
aF0.13333333333333333
aI1
aa(lp20
I2
aI0
aI0
aI0
aI0
aF0.846875
aF0.13333333333333333
aI1
aa(lp21
I2
aI0
aI0
aI0
aI0
aF0.84375
aF0.13333333333333333
aI1
aa(lp22
I2
aI0
aI0
aI0
aI0
aF0.84375
aF0.13333333333333333
aI1
aa(lp23
I2
aI0
aI0
aI0
aI0
aF0.84375
aF0.13333333333333333
aI1
aa(lp24
I2
aI0
aI0
aI0
aI0
aF0.853125
aF0.13333333333333333
aI1
aa(lp25
I2
aI0
aI0
aI0
aI0
aF0.84375
aF0.13333333333333333
aI1
aa(lp26
I2
aI0
aI0
aI0
aI0
aF0.840625
aF0.13333333333333333
aI1
aa(lp27
I2
aI0
aI0
aI0
aI0
aF0.840625
aF0.13333333333333333
aI1
aa(lp28
I2
aI0
aI0
aI0
aI0
aF0.840625
aF0.13333333333333333
aI1
aa(lp29
I3
aI0
aI0
aI0
aI0
aF0.85
aF0.13333333333333333
aI1
aa(lp30
I2
aI0
aI0
aI0
aI0
aF0.846875
aF0.13333333333333333
aI1
aa(lp31
I2
aI0
aI0
aI0
aI0
aF0.84375
aF0.13333333333333333
aI1
aa(lp32
I2
aI0
aI0
aI0
aI0
aF0.84375
aF0.13333333333333333
aI1
aa(lp33
I2
aI0
aI0
aI0
aI0
aF0.84375
aF0.13333333333333333
aI1
aa(lp34
I2
aI0
aI0
aI0
aI0
aF0.853125
aF0.13333333333333333
aI1
aa(lp35
I2
aI0
aI0
aI0
aI0
aF0.85
aF0.13333333333333333
aI1
aa(lp36
I2
aI0
aI0
aI0
aI0
aF0.846875
aF0.13333333333333333
aI1
aa(lp37
I2
aI0
aI0
aI0
aI0
aF0.846875
aF0.13333333333333333
aI1
aa(lp38
I2
aI0
aI0
aI0
aI0
aF0.846875
aF0.13333333333333333
aI1
aa(lp39
I2
aI0
aI0
aI0
aI0
aF0.85
aF0.13333333333333333
aI1
aa(lp40
I2
aI0
aI0
aI0
aI0
aF0.846875
aF0.13333333333333333
aI1
aa(lp41
I2
aI0
aI0
aI0
aI0
aF0.84375
aF0.13333333333333333
aI1
aa(lp42
I2
aI0
aI0
aI0
aI0
aF0.84375
aF0.13333333333333333
aI1
aa(lp43
I2
aI0
aI0
aI0
aI0
aF0.84375
aF0.13333333333333333
aI1
aa(lp44
I2
aI0
aI0
aI0
aI0
aF0.85
aF0.13333333333333333
aI1
aa(lp45
I2
aI0
aI0
aI0
aI0
aF0.846875
aF0.13333333333333333
aI1
aa(lp46
I3
aI1
aI0
aI0
aI0
aF0.84375
aF0.13333333333333333
aI1
aa(lp47
I3
aI1
aI0
aI0
aI0
aF0.84375
aF0.13333333333333333
aI1
aa(lp48
I3
aI0
aI0
aI0
aI0
aF0.84375
aF0.13333333333333333
aI1
aa(lp49
I3
aI0
aI0
aI0
aI0
aF0.85
aF0.13333333333333333
aI1
aa(lp50
I2
aI0
aI0
aI0
aI0
aF0.846875
aF0.13333333333333333
aI1
aa(lp51
I2
aI0
aI0
aI0
aI0
aF0.84375
aF0.13333333333333333
aI1
aa(lp52
I2
aI0
aI0
aI0
aI0
aF0.84375
aF0.13333333333333333
aI1
aa(lp53
I2
aI0
aI0
aI0
aI0
aF0.84375
aF0.13333333333333333
aI1
aa(lp54
I2
aI0
aI0
aI0
aI0
aF0.853125
aF0.13333333333333333
aI1
aa(lp55
I2
aI0
aI0
aI0
aI0
aF0.846875
aF0.13333333333333333
aI1
aa(lp56
I2
aI0
aI0
aI0
aI0
aF0.84375
aF0.13333333333333333
aI1
aa(lp57
I2
aI0
aI0
aI0
aI0
aF0.84375
aF0.13333333333333333
aI1
aa(lp58
I2
aI0
aI0
aI0
aI0
aF0.840625
aF0.13333333333333333
aI1
aa(lp59
I2
aI0
aI0
aI0
aI0
aF0.853125
aF0.13333333333333333
aI1
aa(lp60
I2
aI0
aI0
aI0
aI0
aF0.846875
aF0.13333333333333333
aI1
aa(lp61
I2
aI0
aI0
aI0
aI0
aF0.84375
aF0.13333333333333333
aI1
aa(lp62
I2
aI0
aI0
aI0
aI0
aF0.84375
aF0.13333333333333333
aI1
aa(lp63
I2
aI0
aI0
aI0
aI0
aF0.84375
aF0.13333333333333333
aI1
aa(lp64
I2
aI0
aI0
aI0
aI0
aF0.85
aF0.13333333333333333
aI1
aa(lp65
I2
aI0
aI0
aI0
aI0
aF0.85
aF0.13333333333333333
aI1
aa(lp66
I2
aI0
aI0
aI0
aI0
aF0.846875
aF0.13333333333333333
aI1
aa(lp67
I2
aI0
aI0
aI0
aI0
aF0.846875
aF0.13333333333333333
aI1
aa(lp68
I2
aI0
aI0
aI0
aI0
aF0.846875
aF0.13333333333333333
aI1
aa(lp69
I2
aI0
aI0
aI0
aI0
aF0.85
aF0.13333333333333333
aI1
aa(lp70
I2
aI0
aI0
aI0
aI0
aF0.846875
aF0.13333333333333333
aI1
aa(lp71
I2
aI0
aI0
aI0
aI0
aF0.84375
aF0.13333333333333333
aI1
aa(lp72
I2
aI0
aI0
aI0
aI0
aF0.84375
aF0.13333333333333333
aI1
aa(lp73
I2
aI0
aI0
aI0
aI0
aF0.84375
aF0.13333333333333333
aI1
aa(lp74
I2
aI0
aI0
aI0
aI0
aF0.85
aF0.13333333333333333
aI1
aa(lp75
I2
aI0
aI0
aI0
aI0
aF0.84375
aF0.13333333333333333
aI1
aa(lp76
I3
aI0
aI0
aI0
aI0
aF0.84375
aF0.13333333333333333
aI1
aa(lp77
I3
aI0
aI0
aI0
aI0
aF0.84375
aF0.13333333333333333
aI1
aa(lp78
I3
aI0
aI0
aI0
aI0
aF0.84375
aF0.13333333333333333
aI1
aa(lp79
I3
aI0
aI0
aI0
aI0
aF0.85
aF0.13333333333333333
aI1
aa(lp80
I3
aI0
aI0
aI0
aI0
aF0.846875
aF0.13333333333333333
aI1
aa(lp81
I2
aI0
aI0
aI0
aI0
aF0.84375
aF0.13333333333333333
aI1
aa(lp82
I2
aI0
aI0
aI0
aI0
aF0.84375
aF0.13333333333333333
aI1
aa(lp83
I2
aI0
aI0
aI0
aI0
aF0.84375
aF0.13333333333333333
aI1
aa(lp84
I2
aI0
aI0
aI0
aI0
aF0.853125
aF0.13333333333333333
aI1
aa(lp85
I2
aI0
aI0
aI0
aI0
aF0.85
aF0.13333333333333333
aI1
aa(lp86
I2
aI0
aI0
aI0
aI0
aF0.846875
aF0.13333333333333333
aI1
aa(lp87
I2
aI0
aI0
aI0
aI0
aF0.84375
aF0.13333333333333333
aI1
aa(lp88
I2
aI0
aI0
aI0
aI0
aF0.846875
aF0.13333333333333333
aI1
aa(lp89
I2
aI0
aI0
aI0
aI0
aF0.85
aF0.1361111111111111
aI1
aa.