(lp0
(lp1
I2
aI0
aI0
aI0
aI0
aF0.8731988472622478
aF0.08888888888888889
aI1
aa(lp2
I2
aI0
aI0
aI0
aI0
aF0.8731988472622478
aF0.08888888888888889
aI1
aa(lp3
I2
aI0
aI0
aI0
aI0
aF0.8558558558558559
aF0.08888888888888889
aI1
aa(lp4
I2
aI0
aI0
aI0
aI0
aF0.8622754491017964
aF0.08611111111111111
aI1
aa(lp5
I2
aI0
aI0
aI0
aI0
aF0.8588588588588588
aF0.08611111111111111
aI1
aa(lp6
I2
aI0
aI0
aI0
aI0
aF0.8562874251497006
aF0.08333333333333333
aI1
aa(lp7
I2
aI0
aI0
aI0
aI0
aF0.8562874251497006
aF0.08333333333333333
aI1
aa(lp8
I2
aI0
aI0
aI0
aI0
aF0.8588588588588588
aF0.08611111111111111
aI1
aa(lp9
I2
aI0
aI0
aI0
aI0
aF0.8562874251497006
aF0.08611111111111111
aI1
aa(lp10
I2
aI0
aI0
aI0
aI0
aF0.858433734939759
aF0.08888888888888889
aI1
aa(lp11
I2
aI0
aI0
aI0
aI0
aF0.8588588588588588
aF0.08888888888888889
aI1
aa(lp12
I2
aI0
aI0
aI0
aI0
aF0.8588588588588588
aF0.08888888888888889
aI1
aa(lp13
I2
aI0
aI0
aI0
aI0
aF0.858433734939759
aF0.08888888888888889
aI1
aa(lp14
I2
aI0
aI0
aI0
aI0
aF0.8528528528528528
aF0.08333333333333333
aI1
aa(lp15
I2
aI0
aI0
aI0
aI0
aF0.8554216867469879
aF0.08611111111111111
aI1
aa(lp16
I2
aI0
aI0
aI0
aI0
aF0.8558558558558559
aF0.08333333333333333
aI1
aa(lp17
I2
aI0
aI0
aI0
aI0
aF0.8558558558558559
aF0.08333333333333333
aI1
aa(lp18
I2
aI0
aI0
aI0
aI0
aF0.858433734939759
aF0.08611111111111111
aI1
aa(lp19
I2
aI0
aI0
aI0
aI0
aF0.8666666666666667
aF0.08888888888888889
aI1
aa(lp20
I2
aI0
aI0
aI0
aI0
aF0.8731988472622478
aF0.044444444444444446
aI1
aa(lp21
I2
aI0
aI0
aI0
aI0
aF0.8703170028818443
aF0.04722222222222222
aI1
aa(lp22
I2
aI0
aI0
aI0
aI0
aF0.8703170028818443
aF0.09722222222222222
aI1
aa(lp23
I2
aI0
aI0
aI0
aI0
aF0.869942196531792
aF0.09722222222222222
aI1
aa(lp24
I2
aI0
aI0
aI0
aI0
aF0.8731988472622478
aF0.09166666666666666
aI1
aa(lp25
I2
aI0
aI0
aI0
aI0
aF0.8728323699421965
aF0.1
aI1
aa(lp26
I2
aI0
aI0
aI0
aI0
aF0.8760806916426513
aF0.1
aI1
aa(lp27
I2
aI0
aI0
aI0
aI0
aF0.8703170028818443
aF0.04722222222222222
aI1
aa(lp28
I2
aI0
aI0
aI0
aI0
aF0.8731988472622478
aF0.041666666666666664
aI1
aa(lp29
I2
aI0
aI0
aI0
aI0
aF0.8757225433526011
aF0.044444444444444446
aI1
aa(lp30
I2
aI0
aI0
aI0
aI0
aF0.9106628242074928
aF0.044444444444444446
aI1
aa(lp31
I3
aI0
aI0
aI0
aI0
aF0.9077809798270894
aF0.044444444444444446
aI1
aa(lp32
I3
aI0
aI0
aI0
aI0
aF0.9077809798270894
aF0.044444444444444446
aI1
aa(lp33
I3
aI0
aI0
aI0
aI0
aF0.9046242774566474
aF0.044444444444444446
aI1
aa(lp34
I3
aI0
aI0
aI0
aI0
aF0.9135446685878963
aF0.041666666666666664
aI1
aa(lp35
I3
aI0
aI0
aI0
aI0
aF0.9132947976878613
aF0.044444444444444446
aI1
aa(lp36
I3
aI0
aI0
aI0
aI0
aF0.9164265129682997
aF0.041666666666666664
aI1
aa(lp37
I3
aI0
aI0
aI0
aI0
aF0.9221902017291066
aF0.041666666666666664
aI1
aa(lp38
I3
aI0
aI0
aI0
aI0
aF0.9250720461095101
aF0.041666666666666664
aI1
aa(lp39
I3
aI0
aI0
aI0
aI0
aF0.9250720461095101
aF0.041666666666666664
aI1
aa(lp40
I3
aI0
aI0
aI0
aI0
aF0.8470948012232415
aF0.1111111111111111
aI1
aa(lp41
I2
aI0
aI0
aI0
aI0
aF0.8470948012232415
aF0.1111111111111111
aI1
aa(lp42
I3
aI1
aI0
aI0
aI0
aF0.8501529051987767
aF0.1111111111111111
aI1
aa(lp43
I4
aI5
aI0
aI0
aI0
aF0.843558282208589
aF0.1111111111111111
aI1
aa(lp44
I3
aI5
aI0
aI0
aI0
aF0.8409785932721713
aF0.10555555555555556
aI1
aa(lp45
I3
aI2
aI0
aI0
aI0
aF0.843558282208589
aF0.1111111111111111
aI1
aa(lp46
I2
aI2
aI0
aI0
aI0
aF0.8501529051987767
aF0.10833333333333334
aI1
aa(lp47
I3
aI5
aI0
aI0
aI0
aF0.8470948012232415
aF0.10833333333333334
aI1
aa(lp48
I2
aI1
aI0
aI0
aI0
aF0.8501529051987767
aF0.10833333333333334
aI1
aa(lp49
I2
aI1
aI0
aI0
aI0
aF0.8466257668711656
aF0.10833333333333334
aI1
aa(lp50
I3
aI1
aI0
aI0
aI0
aF0.8764705882352941
aF0.06666666666666667
aI1
aa(lp51
I3
aI0
aI0
aI0
aI0
aF0.8794117647058823
aF0.06666666666666667
aI1
aa(lp52
I4
aI0
aI0
aI0
aI0
aF0.8911764705882353
aF0.06666666666666667
aI1
aa(lp53
I3
aI0
aI0
aI0
aI0
aF0.8852941176470588
aF0.06666666666666667
aI1
aa(lp54
I3
aI0
aI0
aI0
aI0
aF0.8823529411764706
aF0.06388888888888888
aI1
aa(lp55
I3
aI0
aI0
aI0
aI0
aF0.888235294117647
aF0.06666666666666667
aI1
aa(lp56
I3
aI0
aI0
aI0
aI0
aF0.8911764705882353
aF0.06666666666666667
aI1
aa(lp57
I3
aI0
aI0
aI0
aI0
aF0.8823529411764706
aF0.06666666666666667
aI1
aa(lp58
I3
aI0
aI0
aI0
aI0
aF0.8705882352941177
aF0.06666666666666667
aI1
aa(lp59
I3
aI0
aI0
aI0
aI0
aF0.8705882352941177
aF0.06388888888888888
aI1
aa(lp60
I3
aI0
aI0
aI0
aI0
aF0.8558823529411764
aF0.08611111111111111
aI1
aa(lp61
I2
aI0
aI0
aI0
aI0
aF0.8588235294117647
aF0.08055555555555556
aI1
aa(lp62
I2
aI0
aI0
aI0
aI0
aF0.8588235294117647
aF0.08055555555555556
aI1
aa(lp63
I2
aI0
aI0
aI0
aI0
aF0.8529411764705882
aF0.07777777777777778
aI1
aa(lp64
I2
aI0
aI0
aI0
aI0
aF0.85
aF0.06388888888888888
aI1
aa(lp65
I2
aI0
aI0
aI0
aI0
aF0.8529411764705882
aF0.06666666666666667
aI1
aa(lp66
I2
aI0
aI0
aI0
aI0
aF0.8588235294117647
aF0.06666666666666667
aI1
aa(lp67
I2
aI0
aI0
aI0
aI0
aF0.861764705882353
aF0.06666666666666667
aI1
aa(lp68
I2
aI0
aI0
aI0
aI0
aF0.8558823529411764
aF0.06666666666666667
aI1
aa(lp69
I2
aI0
aI0
aI0
aI0
aF0.8529411764705882
aF0.06388888888888888
aI1
aa(lp70
I2
aI0
aI0
aI0
aI0
aF0.8495575221238938
aF0.13333333333333333
aI1
aa(lp71
I2
aI0
aI0
aI0
aI0
aF0.8529411764705882
aF0.13333333333333333
aI1
aa(lp72
I2
aI0
aI0
aI0
aI0
aF0.8613569321533924
aF0.13333333333333333
aI1
aa(lp73
I3
aI0
aI0
aI0
aI0
aF0.8495575221238938
aF0.13333333333333333
aI1
aa(lp74
I3
aI0
aI0
aI0
aI0
aF0.8486646884272997
aF0.12777777777777777
aI1
aa(lp75
I3
aI0
aI0
aI0
aI0
aF0.8401253918495298
aF0.13333333333333333
aI1
aa(lp76
I2
aI0
aI0
aI0
aI0
aF0.8526645768025078
aF0.13333333333333333
aI1
aa(lp77
I2
aI0
aI0
aI0
aI0
aF0.8463949843260188
aF0.13333333333333333
aI1
aa(lp78
I2
aI0
aI0
aI0
aI0
aF0.8432601880877743
aF0.13333333333333333
aI1
aa(lp79
I2
aI0
aI0
aI0
aI0
aF0.8456973293768546
aF0.12777777777777777
aI1
aa(lp80
I2
aI0
aI0
aI0
aI0
aF0.8647058823529412
aF0.06666666666666667
aI1
aa(lp81
I3
aI0
aI0
aI0
aI0
aF0.8705882352941177
aF0.06666666666666667
aI1
aa(lp82
I3
aI0
aI0
aI0
aI0
aF0.8705882352941177
aF0.06666666666666667
aI1
aa(lp83
I3
aI0
aI0
aI0
aI0
aF0.8676470588235294
aF0.06666666666666667
aI1
aa(lp84
I3
aI0
aI0
aI0
aI0
aF0.8588235294117647
aF0.06388888888888888
aI1
aa(lp85
I3
aI0
aI0
aI0
aI0
aF0.8647058823529412
aF0.06666666666666667
aI1
aa(lp86
I3
aI0
aI0
aI0
aI0
aF0.8647058823529412
aF0.06666666666666667
aI1
aa(lp87
I3
aI0
aI0
aI0
aI0
aF0.8705882352941177
aF0.06666666666666667
aI1
aa(lp88
I3
aI0
aI0
aI0
aI0
aF0.8647058823529412
aF0.06666666666666667
aI1
aa(lp89
I3
aI0
aI0
aI0
aI0
aF0.861764705882353
aF0.06388888888888888
aI1
aa.