(lp0
(lp1
I0
aI0
aI0
aI0
aI0
aF0.9625
aF0.7972222222222223
aI0
aa(lp2
I1
aI0
aI0
aI0
aI0
aF0.9625
aF0.7972222222222223
aI0
aa(lp3
I1
aI0
aI0
aI0
aI0
aF0.8403361344537815
aF0.6888888888888889
aI0
aa(lp4
I1
aI0
aI0
aI0
aI0
aF0.8461538461538461
aF0.6944444444444444
aI0
aa(lp5
I1
aI0
aI0
aI0
aI0
aF0.8245614035087719
aF0.7138888888888889
aI0
aa(lp6
I1
aI0
aI0
aI0
aI0
aF0.8157894736842105
aF0.7111111111111111
aI0
aa(lp7
I1
aI0
aI0
aI0
aI0
aF0.8482142857142857
aF0.7111111111111111
aI0
aa(lp8
I2
aI0
aI0
aI0
aI0
aF0.8482142857142857
aF0.7138888888888889
aI0
aa(lp9
I1
aI0
aI0
aI0
aI0
aF0.8521739130434782
aF0.7
aI0
aa(lp10
I1
aI0
aI0
aI0
aI0
aF0.98989898989899
aF0.7416666666666667
aI0
aa(lp11
I1
aI0
aI0
aI0
aI0
aF0.97
aF0.7388888888888889
aI0
aa(lp12
I1
aI0
aI0
aI0
aI0
aF0.9801980198019802
aF0.7361111111111112
aI0
aa(lp13
I1
aI0
aI0
aI0
aI0
aF0.9705882352941176
aF0.7333333333333333
aI0
aa(lp14
I1
aI0
aI0
aI0
aI0
aF0.9702970297029703
aF0.7333333333333333
aI0
aa(lp15
I1
aI0
aI0
aI0
aI0
aF0.9587628865979382
aF0.75
aI0
aa(lp16
I2
aI0
aI0
aI0
aI0
aF0.96875
aF0.7527777777777778
aI0
aa(lp17
I2
aI0
aI0
aI0
aI0
aF0.9789473684210527
aF0.7555555555555555
aI0
aa(lp18
I1
aI0
aI0
aI0
aI0
aF0.9787234042553191
aF0.7611111111111111
aI0
aa(lp19
I2
aI0
aI0
aI0
aI0
aF0.96875
aF0.7527777777777778
aI0
aa(lp20
I1
aI0
aI0
aI0
aI0
aF0.984375
aF0.8388888888888889
aI0
aa(lp21
I1
aI0
aI0
aI0
aI0
aF0.9545454545454546
aF0.8333333333333334
aI0
aa(lp22
I1
aI0
aI0
aI0
aI0
aF0.9705882352941176
aF0.8277777777777777
aI0
aa(lp23
I1
aI0
aI0
aI0
aI0
aF0.9710144927536232
aF0.825
aI0
aa(lp24
I1
aI0
aI0
aI0
aI0
aF0.9857142857142858
aF0.8194444444444444
aI0
aa(lp25
I1
aI0
aI0
aI0
aI0
aF0.9545454545454546
aF0.8361111111111111
aI0
aa(lp26
I1
aI0
aI0
aI0
aI0
aF0.953125
aF0.8416666666666667
aI0
aa(lp27
I1
aI0
aI0
aI0
aI0
aF0.9682539682539683
aF0.8444444444444444
aI0
aa(lp28
I2
aI0
aI0
aI0
aI0
aF0.9672131147540983
aF0.8527777777777777
aI0
aa(lp29
I1
aI0
aI0
aI0
aI0
aF0.9333333333333333
aF0.8527777777777777
aI0
aa(lp30
I1
aI0
aI0
aI0
aI0
aF0.6511627906976745
aF0.9055555555555556
aI0
aa(lp31
I0
aI0
aI0
aI0
aI0
aF0.6136363636363636
aF0.9027777777777778
aI0
aa(lp32
I0
aI0
aI0
aI0
aI0
aF0.6666666666666666
aF0.8972222222222223
aI0
aa(lp33
I0
aI0
aI0
aI0
aI0
aF0.6666666666666666
aF0.8972222222222223
aI0
aa(lp34
I0
aI0
aI0
aI0
aI0
aF0.7111111111111111
aF0.8972222222222223
aI0
aa(lp35
I0
aI0
aI0
aI0
aI0
aF0.6666666666666666
aF0.9083333333333333
aI0
aa(lp36
I0
aI0
aI0
aI0
aI0
aF0.6585365853658537
aF0.9138888888888889
aI0
aa(lp37
I0
aI0
aI0
aI0
aI0
aF0.675
aF0.9166666666666666
aI0
aa(lp38
I0
aI0
aI0
aI0
aI0
aF0.65
aF0.9194444444444444
aI0
aa(lp39
I0
aI0
aI0
aI0
aI0
aF0.5714285714285714
aF0.9138888888888889
aI0
aa(lp40
I0
aI0
aI0
aI0
aI0
aF0.45
aF0.9916666666666667
aI0
aa(lp41
I0
aI0
aI0
aI0
aI0
aF0.42857142857142855
aF0.9861111111111112
aI0
aa(lp42
I0
aI0
aI0
aI0
aI0
aF0.5217391304347826
aF0.9805555555555555
aI0
aa(lp43
I0
aI0
aI0
aI0
aI0
aF0.4166666666666667
aF0.9777777777777777
aI0
aa(lp44
I0
aI0
aI0
aI0
aI0
aF0.43478260869565216
aF0.9722222222222222
aI0
aa(lp45
I0
aI0
aI0
aI0
aI0
aF0.47619047619047616
aF0.9888888888888889
aI0
aa(lp46
I0
aI0
aI0
aI0
aI0
aF0.47368421052631576
aF0.9944444444444445
aI0
aa(lp47
I0
aI0
aI0
aI0
aI0
aF0.3888888888888889
aF1.0
aI0
aa(lp48
I0
aI0
aI0
aI0
aI0
aF0.4444444444444444
aF1.0
aI0
aa(lp49
I0
aI0
aI0
aI0
aI0
aF0.3333333333333333
aF1.0
aI0
aa(lp50
I0
aI0
aI0
aI0
aI0
aI0
aF1.0
aI0
aa(lp51
I0
aI0
aI0
aI0
aI0
aI0
aF1.0
aI0
aa(lp52
I0
aI0
aI0
aI0
aI0
aI0
aF1.0
aI0
aa(lp53
I0
aI0
aI0
aI0
aI0
aI0
aF1.0
aI0
aa(lp54
I0
aI0
aI0
aI0
aI0
aI0
aF1.0
aI0
aa(lp55
I0
aI0
aI0
aI0
aI0
aI0
aF1.0
aI0
aa(lp56
I0
aI0
aI0
aI0
aI0
aI0
aF1.0
aI0
aa(lp57
I0
aI0
aI0
aI0
aI0
aI0
aF1.0
aI0
aa(lp58
I0
aI0
aI0
aI0
aI0
aI0
aF1.0
aI0
aa(lp59
I0
aI0
aI0
aI0
aI0
aI0
aF1.0
aI0
aa(lp60
I0
aI0
aI0
aI0
aI0
aI0
aF1.0
aI0
aa(lp61
I0
aI0
aI0
aI0
aI0
aI0
aF1.0
aI0
aa(lp62
I0
aI0
aI0
aI0
aI0
aI0
aF1.0
aI0
aa(lp63
I0
aI0
aI0
aI0
aI0
aI0
aF1.0
aI0
aa(lp64
I0
aI0
aI0
aI0
aI0
aI0
aF1.0
aI0
aa(lp65
I0
aI0
aI0
aI0
aI0
aI0
aF1.0
aI0
aa(lp66
I0
aI0
aI0
aI0
aI0
aI0
aF1.0
aI0
aa(lp67
I0
aI0
aI0
aI0
aI0
aI0
aF1.0
aI0
aa(lp68
I0
aI0
aI0
aI0
aI0
aI0
aF1.0
aI0
aa(lp69
I0
aI0
aI0
aI0
aI0
aI0
aF1.0
aI0
aa(lp70
I0
aI0
aI0
aI0
aI0
aI0
aF1.0
aI0
aa(lp71
I0
aI0
aI0
aI0
aI0
aI0
aF1.0
aI0
aa(lp72
I0
aI0
aI0
aI0
aI0
aI0
aF1.0
aI0
aa(lp73
I0
aI0
aI0
aI0
aI0
aI0
aF1.0
aI0
aa(lp74
I0
aI0
aI0
aI0
aI0
aI0
aF1.0
aI0
aa(lp75
I0
aI0
aI0
aI0
aI0
aI0
aF1.0
aI0
aa(lp76
I0
aI0
aI0
aI0
aI0
aI0
aF1.0
aI0
aa(lp77
I0
aI0
aI0
aI0
aI0
aI0
aF1.0
aI0
aa(lp78
I0
aI0
aI0
aI0
aI0
aI0
aF1.0
aI0
aa(lp79
I0
aI0
aI0
aI0
aI0
aI0
aF1.0
aI0
aa(lp80
I0
aI0
aI0
aI0
aI0
aI0
aF1.0
aI0
aa(lp81
I0
aI0
aI0
aI0
aI0
aI0
aF1.0
aI0
aa(lp82
I0
aI0
aI0
aI0
aI0
aI0
aF1.0
aI0
aa(lp83
I0
aI0
aI0
aI0
aI0
aI0
aF1.0
aI0
aa(lp84
I0
aI0
aI0
aI0
aI0
aI0
aF1.0
aI0
aa(lp85
I0
aI0
aI0
aI0
aI0
aI0
aF1.0
aI0
aa(lp86
I0
aI0
aI0
aI0
aI0
aI0
aF1.0
aI0
aa(lp87
I0
aI0
aI0
aI0
aI0
aI0
aF1.0
aI0
aa(lp88
I0
aI0
aI0
aI0
aI0
aI0
aF1.0
aI0
aa(lp89
I0
aI0
aI0
aI0
aI0
aI0
aF1.0
aI0
aa.