(lp0
(lp1
I3
aI0
aI0
aI0
aI0
aF0.8682634730538922
aF0.09722222222222222
aI1
aa(lp2
I2
aI0
aI0
aI0
aI0
aF0.8682634730538922
aF0.09722222222222222
aI1
aa(lp3
I2
aI0
aI0
aI0
aI0
aF0.8558558558558559
aF0.08888888888888889
aI1
aa(lp4
I2
aI0
aI0
aI0
aI0
aF0.8622754491017964
aF0.08611111111111111
aI1
aa(lp5
I2
aI0
aI0
aI0
aI0
aF0.8588588588588588
aF0.08611111111111111
aI1
aa(lp6
I2
aI0
aI0
aI0
aI0
aF0.8562874251497006
aF0.08333333333333333
aI1
aa(lp7
I2
aI0
aI0
aI0
aI0
aF0.8562874251497006
aF0.08333333333333333
aI1
aa(lp8
I2
aI0
aI0
aI0
aI0
aF0.8588588588588588
aF0.08611111111111111
aI1
aa(lp9
I2
aI0
aI0
aI0
aI0
aF0.8562874251497006
aF0.08611111111111111
aI1
aa(lp10
I2
aI0
aI0
aI0
aI0
aF0.8678678678678678
aF0.08888888888888889
aI1
aa(lp11
I2
aI0
aI0
aI0
aI0
aF0.8622754491017964
aF0.10277777777777777
aI1
aa(lp12
I2
aI0
aI0
aI0
aI0
aF0.8622754491017964
aF0.1111111111111111
aI1
aa(lp13
I2
aI0
aI0
aI0
aI0
aF0.8618618618618619
aF0.1111111111111111
aI1
aa(lp14
I2
aI0
aI0
aI0
aI0
aF0.8652694610778443
aF0.10833333333333334
aI1
aa(lp15
I2
aI0
aI0
aI0
aI0
aF0.8648648648648649
aF0.1111111111111111
aI1
aa(lp16
I2
aI0
aI0
aI0
aI0
aF0.8682634730538922
aF0.1111111111111111
aI1
aa(lp17
I2
aI0
aI0
aI0
aI0
aF0.8622754491017964
aF0.08888888888888889
aI1
aa(lp18
I2
aI0
aI0
aI0
aI0
aF0.8648648648648649
aF0.08611111111111111
aI1
aa(lp19
I2
aI0
aI0
aI0
aI0
aF0.8674698795180723
aF0.08888888888888889
aI1
aa(lp20
I2
aI0
aI0
aI0
aI0
aF0.689419795221843
aF0.2222222222222222
aI1
aa(lp21
I1
aI0
aI0
aI0
aI0
aF0.6938775510204082
aF0.2222222222222222
aI1
aa(lp22
I2
aI0
aI0
aI0
aI0
aF0.6904761904761905
aF0.2222222222222222
aI1
aa(lp23
I2
aI0
aI0
aI0
aI0
aF0.689419795221843
aF0.2222222222222222
aI1
aa(lp24
I1
aI0
aI0
aI0
aI0
aF0.6836734693877551
aF0.2111111111111111
aI1
aa(lp25
I1
aI0
aI0
aI0
aI0
aF0.689419795221843
aF0.21944444444444444
aI1
aa(lp26
I1
aI0
aI0
aI0
aI0
aF0.7040816326530612
aF0.21666666666666667
aI1
aa(lp27
I0
aI0
aI0
aI0
aI0
aF0.7006802721088435
aF0.21666666666666667
aI1
aa(lp28
I1
aI0
aI0
aI0
aI0
aF0.6996587030716723
aF0.21944444444444444
aI1
aa(lp29
I1
aI0
aI0
aI0
aI0
aF0.6952054794520548
aF0.21666666666666667
aI1
aa(lp30
I2
aI0
aI0
aI0
aI0
aF0.85625
aF0.13333333333333333
aI1
aa(lp31
I2
aI0
aI0
aI0
aI0
aF0.859375
aF0.13333333333333333
aI1
aa(lp32
I2
aI0
aI0
aI0
aI0
aF0.8625
aF0.13333333333333333
aI1
aa(lp33
I2
aI0
aI0
aI0
aI0
aF0.85625
aF0.13333333333333333
aI1
aa(lp34
I3
aI2
aI0
aI0
aI0
aF0.846875
aF0.12777777777777777
aI1
aa(lp35
I2
aI0
aI0
aI0
aI0
aF0.85
aF0.13333333333333333
aI1
aa(lp36
I2
aI0
aI0
aI0
aI0
aF0.8625
aF0.13333333333333333
aI1
aa(lp37
I2
aI0
aI0
aI0
aI0
aF0.859375
aF0.13333333333333333
aI1
aa(lp38
I2
aI0
aI0
aI0
aI0
aF0.853125
aF0.13333333333333333
aI1
aa(lp39
I2
aI0
aI0
aI0
aI0
aF0.85
aF0.12777777777777777
aI1
aa(lp40
I2
aI0
aI0
aI0
aI0
aF0.861764705882353
aF0.06666666666666667
aI1
aa(lp41
I3
aI0
aI0
aI0
aI0
aF0.8647058823529412
aF0.06666666666666667
aI1
aa(lp42
I3
aI0
aI0
aI0
aI0
aF0.8705882352941177
aF0.06666666666666667
aI1
aa(lp43
I3
aI0
aI0
aI0
aI0
aF0.8676470588235294
aF0.06666666666666667
aI1
aa(lp44
I3
aI0
aI0
aI0
aI0
aF0.861764705882353
aF0.06388888888888888
aI1
aa(lp45
I3
aI0
aI0
aI0
aI0
aF0.8647058823529412
aF0.06666666666666667
aI1
aa(lp46
I3
aI0
aI0
aI0
aI0
aF0.8676470588235294
aF0.06666666666666667
aI1
aa(lp47
I3
aI0
aI0
aI0
aI0
aF0.8647058823529412
aF0.06666666666666667
aI1
aa(lp48
I3
aI0
aI0
aI0
aI0
aF0.8647058823529412
aF0.06666666666666667
aI1
aa(lp49
I3
aI0
aI0
aI0
aI0
aF0.8588235294117647
aF0.06388888888888888
aI1
aa(lp50
I3
aI0
aI0
aI0
aI0
aF0.8647058823529412
aF0.06666666666666667
aI1
aa(lp51
I3
aI0
aI0
aI0
aI0
aF0.8705882352941177
aF0.06666666666666667
aI1
aa(lp52
I3
aI0
aI0
aI0
aI0
aF0.8705882352941177
aF0.06666666666666667
aI1
aa(lp53
I3
aI0
aI0
aI0
aI0
aF0.8676470588235294
aF0.06666666666666667
aI1
aa(lp54
I3
aI0
aI0
aI0
aI0
aF0.8588235294117647
aF0.06388888888888888
aI1
aa(lp55
I3
aI0
aI0
aI0
aI0
aF0.8647058823529412
aF0.06666666666666667
aI1
aa(lp56
I3
aI0
aI0
aI0
aI0
aF0.8647058823529412
aF0.06666666666666667
aI1
aa(lp57
I3
aI0
aI0
aI0
aI0
aF0.8705882352941177
aF0.06666666666666667
aI1
aa(lp58
I3
aI0
aI0
aI0
aI0
aF0.8647058823529412
aF0.06666666666666667
aI1
aa(lp59
I3
aI0
aI0
aI0
aI0
aF0.861764705882353
aF0.06388888888888888
aI1
aa(lp60
I3
aI0
aI0
aI0
aI0
aF0.846875
aF0.1527777777777778
aI1
aa(lp61
I2
aI0
aI0
aI0
aI0
aF0.85625
aF0.15555555555555556
aI1
aa(lp62
I2
aI0
aI0
aI0
aI0
aF0.853125
aF0.15555555555555556
aI1
aa(lp63
I2
aI0
aI0
aI0
aI0
aF0.853125
aF0.1527777777777778
aI1
aa(lp64
I2
aI0
aI0
aI0
aI0
aF0.846875
aF0.12777777777777777
aI1
aa(lp65
I2
aI0
aI0
aI0
aI0
aF0.85
aF0.13333333333333333
aI1
aa(lp66
I2
aI0
aI0
aI0
aI0
aF0.85625
aF0.13333333333333333
aI1
aa(lp67
I2
aI0
aI0
aI0
aI0
aF0.85625
aF0.13333333333333333
aI1
aa(lp68
I2
aI0
aI0
aI0
aI0
aF0.853125
aF0.13333333333333333
aI1
aa(lp69
I2
aI0
aI0
aI0
aI0
aF0.84375
aF0.12777777777777777
aI1
aa(lp70
I2
aI0
aI0
aI0
aI0
aF0.689419795221843
aF0.2222222222222222
aI1
aa(lp71
I1
aI0
aI0
aI0
aI0
aF0.6938775510204082
aF0.2222222222222222
aI1
aa(lp72
I2
aI0
aI0
aI0
aI0
aF0.6904761904761905
aF0.2222222222222222
aI1
aa(lp73
I2
aI0
aI0
aI0
aI0
aF0.689419795221843
aF0.2222222222222222
aI1
aa(lp74
I1
aI0
aI0
aI0
aI0
aF0.6836734693877551
aF0.2111111111111111
aI1
aa(lp75
I1
aI0
aI0
aI0
aI0
aF0.689419795221843
aF0.21944444444444444
aI1
aa(lp76
I1
aI0
aI0
aI0
aI0
aF0.7040816326530612
aF0.21666666666666667
aI1
aa(lp77
I0
aI0
aI0
aI0
aI0
aF0.7006802721088435
aF0.21666666666666667
aI1
aa(lp78
I1
aI0
aI0
aI0
aI0
aF0.6996587030716723
aF0.21944444444444444
aI1
aa(lp79
I1
aI0
aI0
aI0
aI0
aF0.6952054794520548
aF0.21666666666666667
aI1
aa(lp80
I2
aI0
aI0
aI0
aI0
aF0.8738738738738738
aF0.1111111111111111
aI1
aa(lp81
I2
aI0
aI0
aI0
aI0
aF0.8712574850299402
aF0.1111111111111111
aI1
aa(lp82
I2
aI0
aI0
aI0
aI0
aF0.874251497005988
aF0.11388888888888889
aI1
aa(lp83
I2
aI0
aI0
aI0
aI0
aF0.8708708708708709
aF0.10277777777777777
aI1
aa(lp84
I2
aI0
aI0
aI0
aI0
aF0.874251497005988
aF0.08333333333333333
aI1
aa(lp85
I2
aI0
aI0
aI0
aI0
aF0.8708708708708709
aF0.09722222222222222
aI1
aa(lp86
I2
aI0
aI0
aI0
aI0
aF0.8682634730538922
aF0.1111111111111111
aI1
aa(lp87
I2
aI0
aI0
aI0
aI0
aF0.8682634730538922
aF0.1111111111111111
aI1
aa(lp88
I2
aI0
aI0
aI0
aI0
aF0.8708708708708709
aF0.1111111111111111
aI1
aa(lp89
I2
aI0
aI0
aI0
aI0
aF0.8708708708708709
aF0.1111111111111111
aI1
aa(lp90
I2
aI0
aI0
aI0
aI0
aF0.8588588588588588
aF0.08888888888888889
aI1
aa(lp91
I2
aI0
aI0
aI0
aI0
aF0.8562874251497006
aF0.08888888888888889
aI1
aa(lp92
I2
aI0
aI0
aI0
aI0
aF0.8562874251497006
aF0.08888888888888889
aI1
aa(lp93
I2
aI0
aI0
aI0
aI0
aF0.8558558558558559
aF0.08888888888888889
aI1
aa(lp94
I2
aI0
aI0
aI0
aI0
aF0.8622754491017964
aF0.08333333333333333
aI1
aa(lp95
I2
aI0
aI0
aI0
aI0
aF0.8588588588588588
aF0.08611111111111111
aI1
aa(lp96
I2
aI0
aI0
aI0
aI0
aF0.8592814371257484
aF0.08333333333333333
aI1
aa(lp97
I2
aI0
aI0
aI0
aI0
aF0.8562874251497006
aF0.08333333333333333
aI1
aa(lp98
I2
aI0
aI0
aI0
aI0
aF0.8588588588588588
aF0.08611111111111111
aI1
aa(lp99
I2
aI0
aI0
aI0
aI0
aF0.8622754491017964
aF0.08611111111111111
aI1
aa.